(lp0
I1
aF0.1
a.(lp0
I2
aF0.2
a.(lp0
I3
aF0.30000000000000004
a.(lp0
I4
aF0.4
a.(lp0
I5
aF0.5
a.(lp0
I6
aF0.6
a.(lp0
I7
aF0.7
a.(lp0
I8
aF0.7999999999999999
a.(lp0
I9
aF0.8999999999999999
a.(lp0
I10
aF0.9999999999999999
a.(lp0
I11
aF1.0999999999999999
a.(lp0
I12
aF1.2
a.(lp0
I13
aF1.3
a.(lp0
I14
aF1.4000000000000001
a.(lp0
I15
aF1.5000000000000002
a.(lp0
I16
aF1.6000000000000003
a.(lp0
I17
aF1.7000000000000004
a.(lp0
I18
aF1.8000000000000005
a.(lp0
I19
aF1.9000000000000006
a.(lp0
I20
aF2.0000000000000004
a.(lp0
I21
aF2.1000000000000005
a.(lp0
I22
aF2.2000000000000006
a.(lp0
I23
aF2.3000000000000007
a.(lp0
I24
aF2.400000000000001
a.(lp0
I25
aF2.500000000000001
a.(lp0
I26
aF2.600000000000001
a.(lp0
I27
aF2.700000000000001
a.(lp0
I28
aF2.800000000000001
a.(lp0
I29
aF2.9000000000000012
a.(lp0
I30
aF3.0000000000000013
a.(lp0
I31
aF3.1000000000000014
a.(lp0
I32
aF3.2000000000000015
a.(lp0
I33
aF0.1
a.(lp0
I34
aF0.2
a.(lp0
I35
aF0.30000000000000004
a.(lp0
I36
aF0.4
a.(lp0
I37
aF0.5
a.(lp0
I38
aF0.6
a.(lp0
I39
aF0.7
a.(lp0
I40
aF0.7999999999999999
a.(lp0
I41
aF0.8999999999999999
a.(lp0
I42
aF0.9999999999999999
a.(lp0
I43
aF1.0999999999999999
a.(lp0
I44
aF1.2
a.(lp0
I45
aF1.3
a.(lp0
I46
aF1.4000000000000001
a.(lp0
I47
aF1.5000000000000002
a.(lp0
I48
aF1.6000000000000003
a.(lp0
I49
aF1.7000000000000004
a.(lp0
I50
aF1.8000000000000005
a.(lp0
I51
aF1.9000000000000006
a.(lp0
I52
aF2.0000000000000004
a.(lp0
I53
aF2.1000000000000005
a.(lp0
I54
aF2.2000000000000006
a.(lp0
I55
aF2.3000000000000007
a.(lp0
I56
aF2.400000000000001
a.(lp0
I57
aF2.500000000000001
a.(lp0
I58
aF3.600000000000001
a.(lp0
I59
aF4.700000000000001
a.(lp0
I60
aF5.800000000000001
a.(lp0
I61
aF6.9
a.(lp0
I62
aF8.0
a.(lp0
I63
aF9.1
a.(lp0
I64
aF10.2
a.(lp0
I65
aF11.299999999999999
a.(lp0
I66
aF12.399999999999999
a.(lp0
I67
aF13.499999999999998
a.(lp0
I68
aF14.599999999999998
a.(lp0
I69
aF15.699999999999998
a.(lp0
I70
aF16.799999999999997
a.(lp0
I71
aF17.9
a.(lp0
I72
aF19.0
a.(lp0
I73
aF20.1
a.(lp0
I74
aF21.200000000000003
a.(lp0
I75
aF22.300000000000004
a.(lp0
I76
aF23.400000000000006
a.(lp0
I77
aF24.500000000000007
a.(lp0
I78
aF25.60000000000001
a.(lp0
I79
aF26.70000000000001
a.(lp0
I80
aF27.80000000000001
a.(lp0
I81
aF28.900000000000013
a.(lp0
I82
aF30.000000000000014
a.(lp0
I83
aF31.100000000000016
a.(lp0
I84
aF32.20000000000002
a.(lp0
I85
aF33.30000000000002
a.(lp0
I86
aF34.40000000000002
a.(lp0
I87
aF35.50000000000002
a.(lp0
I88
aF36.60000000000002
a.(lp0
I89
aF37.700000000000024
a.(lp0
I90
aF38.800000000000026
a.(lp0
I91
aF39.90000000000003
a.(lp0
I92
aF41.00000000000003
a.(lp0
I93
aF42.10000000000003
a.(lp0
I94
aF43.20000000000003
a.(lp0
I95
aF44.30000000000003
a.(lp0
I96
aF45.400000000000034
a.(lp0
I97
aF46.500000000000036
a.(lp0
I98
aF47.60000000000004
a.(lp0
I99
aF48.70000000000004
a.(lp0
I100
aF49.80000000000004
a.(lp0
I101
aF50.90000000000004
a.(lp0
I102
aF52.00000000000004
a.(lp0
I103
aF54.100000000000044
a.(lp0
I104
aF56.200000000000045
a.(lp0
I105
aF59.30000000000005
a.(lp0
I106
aF62.40000000000005
a.(lp0
I107
aF66.50000000000004
a.(lp0
I108
aF70.60000000000004
a.(lp0
I109
aF75.70000000000003
a.(lp0
I110
aF80.80000000000003
a.(lp0
I111
aF86.90000000000002
a.(lp0
I112
aF93.00000000000001
a.(lp0
I113
aF100.10000000000001
a.(lp0
I114
aF107.2
a.(lp0
I115
aF115.3
a.(lp0
I116
aF123.39999999999999
a.(lp0
I117
aF132.5
a.(lp0
I118
aF141.6
a.(lp0
I119
aF151.7
a.(lp0
I120
aF161.79999999999998
a.(lp0
I121
aF172.89999999999998
a.(lp0
I122
aF183.99999999999997
a.(lp0
I123
aF196.09999999999997
a.(lp0
I124
aF208.19999999999996
a.(lp0
I125
aF221.29999999999995
a.(lp0
I126
aF234.39999999999995
a.(lp0
I127
aF248.49999999999994
a.(lp0
I128
aF262.59999999999997
a.(lp0
I129
aF277.7
a.(lp0
I130
aF292.8
a.(lp0
I131
aF308.90000000000003
a.(lp0
I132
aF325.00000000000006
a.(lp0
I133
aF342.1000000000001
a.(lp0
I134
aF359.2000000000001
a.(lp0
I135
aF377.3000000000001
a.(lp0
I136
aF395.40000000000015
a.(lp0
I137
aF414.50000000000017
a.(lp0
I138
aF433.6000000000002
a.(lp0
I139
aF453.7000000000002
a.(lp0
I140
aF473.80000000000024
a.(lp0
I141
aF494.90000000000026
a.(lp0
I142
aF516.0000000000002
a.(lp0
I143
aF538.1000000000003
a.(lp0
I144
aF560.2000000000003
a.(lp0
I145
aF583.3000000000003
a.(lp0
I146
aF606.4000000000003
a.(lp0
I147
aF630.5000000000003
a.(lp0
I148
aF654.6000000000004
a.(lp0
I149
aF679.7000000000004
a.(lp0
I150
aF704.8000000000004
a.(lp0
I151
aF730.9000000000004
a.(lp0
I152
aF757.0000000000005
a.(lp0
I153
aF784.1000000000005
a.(lp0
I154
aF811.2000000000005
a.(lp0
I155
aF839.3000000000005
a.(lp0
I156
aF867.4000000000005
a.(lp0
I157
aF896.5000000000006
a.(lp0
I158
aF925.6000000000006
a.(lp0
I159
aF955.7000000000006
a.(lp0
I160
aF985.8000000000006
a.(lp0
I161
aF1016.9000000000007
a.(lp0
I162
aF1048.0000000000007
a.(lp0
I163
aF1080.1000000000006
a.(lp0
I164
aF1112.2000000000005
a.(lp0
I165
aF1145.3000000000004
a.(lp0
I166
aF1178.4000000000003
a.(lp0
I167
aF1212.5000000000002
a.(lp0
I168
aF1246.6000000000001
a.(lp0
I169
aF1281.7
a.(lp0
I170
aF1316.8
a.(lp0
I171
aF1352.8999999999999
a.(lp0
I172
aF1388.9999999999998
a.(lp0
I173
aF1426.0999999999997
a.(lp0
I174
aF1463.1999999999996
a.(lp0
I175
aF1501.2999999999995
a.(lp0
I176
aF1539.3999999999994
a.(lp0
I177
aF1578.4999999999993
a.(lp0
I178
aF1617.5999999999992
a.(lp0
I179
aF1657.6999999999991
a.(lp0
I180
aF1697.799999999999
a.(lp0
I181
aF1738.899999999999
a.(lp0
I182
aF1779.9999999999989
a.(lp0
I183
aF1822.0999999999988
a.(lp0
I184
aF1864.1999999999987
a.(lp0
I185
aF1907.2999999999986
a.(lp0
I186
aF1950.3999999999985
a.(lp0
I187
aF1994.4999999999984
a.(lp0
I188
aF2038.5999999999983
a.(lp0
I189
aF2083.6999999999985
a.(lp0
I190
aF2128.7999999999984
a.(lp0
I191
aF2174.8999999999983
a.(lp0
I192
aF2220.999999999998
a.(lp0
I193
aF2268.099999999998
a.(lp0
I194
aF2315.199999999998
a.(lp0
I195
aF2363.299999999998
a.(lp0
I196
aF2411.399999999998
a.(lp0
I197
aF2460.4999999999977
a.(lp0
I198
aF2509.5999999999976
a.(lp0
I199
aF2559.6999999999975
a.(lp0
I200
aF2609.7999999999975
a.(lp0
I201
aF2660.8999999999974
a.(lp0
I202
aF2711.9999999999973
a.(lp0
I203
aF2764.099999999997
a.(lp0
I204
aF2816.199999999997
a.(lp0
I205
aF2869.299999999997
a.(lp0
I206
aF2922.399999999997
a.(lp0
I207
aF2976.499999999997
a.(lp0
I208
aF3030.5999999999967
a.(lp0
I209
aF3085.6999999999966
a.(lp0
I210
aF3140.7999999999965
a.(lp0
I211
aF3196.8999999999965
a.(lp0
I212
aF3252.9999999999964
a.(lp0
I213
aF3310.0999999999963
a.(lp0
I214
aF3367.199999999996
a.(lp0
I215
aF3425.299999999996
a.(lp0
I216
aF3483.399999999996
a.(lp0
I217
aF3542.499999999996
a.(lp0
I218
aF3601.599999999996
a.(lp0
I219
aF3661.6999999999957
a.(lp0
I220
aF3721.7999999999956
a.(lp0
I221
aF3782.8999999999955
a.(lp0
I222
aF3843.9999999999955
a.(lp0
I223
aF3906.0999999999954
a.(lp0
I224
aF3968.1999999999953
a.(lp0
I225
aF4031.299999999995
a.(lp0
I226
aF4094.399999999995
a.(lp0
I227
aF4158.499999999995
a.(lp0
I228
aF4222.599999999996
a.(lp0
I229
aF4287.699999999996
a.(lp0
I230
aF4352.7999999999965
a.(lp0
I231
aF4418.899999999997
a.(lp0
I232
aF4484.999999999997
a.(lp0
I233
aF4552.099999999998
a.(lp0
I234
aF4619.199999999998
a.(lp0
I235
aF4687.299999999998
a.(lp0
I236
aF4755.399999999999
a.(lp0
I237
aF4824.499999999999
a.(lp0
I238
aF4893.599999999999
a.(lp0
I239
aF4963.7
a.(lp0
I240
aF5033.8
a.